; Function Attrs: nounwind uwtable
define noalias noundef ptr @Ga2_ManAbsDerive(ptr noundef readonly captures(none) %0) local_unnamed_addr #4 {
  %2 = tail call noalias dereferenceable_or_null(16) ptr @malloc(i64 noundef 16) #27
  %3 = getelementptr inbounds nuw i8, ptr %2, i64 4
  store i32 0, ptr %3, align 4
  store i32 1000, ptr %2, align 8
  %4 = tail call noalias dereferenceable_or_null(4000) ptr @malloc(i64 noundef 4000) #27
  %5 = getelementptr inbounds nuw i8, ptr %2, i64 8
  store ptr %4, ptr %5, align 8
  %6 = getelementptr i8, ptr %0, i64 64
  %7 = getelementptr i8, ptr %0, i64 16
  %.val3952 = load i32, ptr %7, align 8
  %8 = icmp sgt i32 %.val3952, 0
  br i1 %8, label %.lr.ph, label %.critedge

.lr.ph:                                           ; preds = %1
  %9 = getelementptr i8, ptr %0, i64 32
  %10 = getelementptr inbounds nuw i8, ptr %0, i64 448
  br label %11

11:                                               ; preds = %.lr.ph, %56
  %.val3960 = phi i32 [ %.val3952, %.lr.ph ], [ %.val39, %56 ]
  %.053 = phi i32 [ 0, %.lr.ph ], [ %57, %56 ]
  %.val41 = load ptr, ptr %6, align 8
  %12 = getelementptr i8, ptr %.val41, i64 4
  %.val41.val = load i32, ptr %12, align 4
  %13 = sub i32 %.053, %.val3960
  %14 = add i32 %13, %.val41.val
  %.val42 = load ptr, ptr %9, align 8
  %15 = getelementptr i8, ptr %.val41, i64 8
  %.val43.val = load ptr, ptr %15, align 8
  %16 = sext i32 %14 to i64
  %17 = getelementptr inbounds i32, ptr %.val43.val, i64 %16
  %18 = load i32, ptr %17, align 4
  %.not = icmp eq ptr %.val42, null
  br i1 %.not, label %.critedge, label %19

19:                                               ; preds = %11
  %20 = sext i32 %18 to i64
  %21 = getelementptr inbounds %struct.Gia_Obj_t_, ptr %.val42, i64 %20
  %22 = load i64, ptr %21, align 4
  %.not32 = icmp sgt i64 %22, -1
  br i1 %.not32, label %56, label %23

23:                                               ; preds = %19
  %24 = load ptr, ptr %10, align 8
  %25 = getelementptr i8, ptr %24, i64 8
  %.val34 = load ptr, ptr %25, align 8
  %26 = getelementptr inbounds i32, ptr %.val34, i64 %20
  %27 = load i32, ptr %26, align 4
  %.not33 = icmp eq i32 %27, 0
  br i1 %.not33, label %56, label %28

28:                                               ; preds = %23
  %29 = load i32, ptr %3, align 4
  %30 = load i32, ptr %2, align 8
  %31 = icmp eq i32 %29, %30
  br i1 %31, label %32, label %.Vec_IntGrow.exit10_crit_edge.i

.Vec_IntGrow.exit10_crit_edge.i:                  ; preds = %28
  %.pre.i = load ptr, ptr %5, align 8
  br label %Vec_IntPush.exit

32:                                               ; preds = %28
  %33 = icmp slt i32 %29, 16
  br i1 %33, label %34, label %41

34:                                               ; preds = %32
  %35 = load ptr, ptr %5, align 8
  %.not9.i.i = icmp eq ptr %35, null
  br i1 %.not9.i.i, label %38, label %36

36:                                               ; preds = %34
  %37 = tail call dereferenceable_or_null(64) ptr @realloc(ptr noundef nonnull %35, i64 noundef 64) #26
  br label %Vec_IntGrow.exit.i

38:                                               ; preds = %34
  %39 = tail call noalias dereferenceable_or_null(64) ptr @malloc(i64 noundef 64) #27
  br label %Vec_IntGrow.exit.i

Vec_IntGrow.exit.i:                               ; preds = %38, %36
  %40 = phi ptr [ %37, %36 ], [ %39, %38 ]
  store ptr %40, ptr %5, align 8
  store i32 16, ptr %2, align 8
  br label %Vec_IntPush.exit

41:                                               ; preds = %32
  %42 = shl nuw nsw i32 %29, 1
  %43 = load ptr, ptr %5, align 8
  %.not9.i9.i = icmp eq ptr %43, null
  %44 = zext nneg i32 %42 to i64
  %45 = shl nuw nsw i64 %44, 2
  br i1 %.not9.i9.i, label %48, label %46

46:                                               ; preds = %41
  %47 = tail call ptr @realloc(ptr noundef nonnull %43, i64 noundef %45) #26
  br label %50

48:                                               ; preds = %41
  %49 = tail call noalias ptr @malloc(i64 noundef %45) #27
  br label %50

50:                                               ; preds = %48, %46
  %51 = phi ptr [ %47, %46 ], [ %49, %48 ]
  store ptr %51, ptr %5, align 8
  store i32 %42, ptr %2, align 8
  br label %Vec_IntPush.exit

Vec_IntPush.exit:                                 ; preds = %.Vec_IntGrow.exit10_crit_edge.i, %Vec_IntGrow.exit.i, %50
  %52 = phi ptr [ %.pre.i, %.Vec_IntGrow.exit10_crit_edge.i ], [ %51, %50 ], [ %40, %Vec_IntGrow.exit.i ]
  %53 = add nsw i32 %29, 1
  store i32 %53, ptr %3, align 4
  %54 = sext i32 %29 to i64
  %55 = getelementptr inbounds i32, ptr %52, i64 %54
  store i32 %18, ptr %55, align 4
  %.val39.pre = load i32, ptr %7, align 8
  br label %56

56:                                               ; preds = %19, %23, %Vec_IntPush.exit
  %.val39 = phi i32 [ %.val3960, %19 ], [ %.val3960, %23 ], [ %.val39.pre, %Vec_IntPush.exit ]
  %57 = add nuw nsw i32 %.053, 1
  %58 = icmp slt i32 %57, %.val39
  br i1 %58, label %11, label %.critedge, !llvm.loop !54

.critedge:                                        ; preds = %11, %56, %1
  %59 = getelementptr i8, ptr %0, i64 32
  %60 = getelementptr inbounds nuw i8, ptr %0, i64 24
  %61 = load i32, ptr %60, align 8
  %62 = icmp sgt i32 %61, 0
  br i1 %62, label %.lr.ph57, label %.critedge2

.lr.ph57:                                         ; preds = %.critedge
  %63 = getelementptr inbounds nuw i8, ptr %0, i64 448
  br label %64

64:                                               ; preds = %.lr.ph57, %106
  %65 = phi i32 [ %61, %.lr.ph57 ], [ %107, %106 ]
  %indvars.iv = phi i64 [ 0, %.lr.ph57 ], [ %indvars.iv.next, %106 ]
  %.val35 = load ptr, ptr %59, align 8
  %.not28 = icmp eq ptr %.val35, null
  br i1 %.not28, label %.critedge2, label %66

66:                                               ; preds = %64
  %67 = getelementptr inbounds nuw %struct.Gia_Obj_t_, ptr %.val35, i64 %indvars.iv
  %.val38 = load i64, ptr %67, align 4
  %68 = and i64 %.val38, 536870911
  %69 = icmp eq i64 %68, 536870911
  %70 = and i64 %.val38, -9223372034707292160
  %71 = icmp ne i64 %70, -9223372036854775808
  %or.cond = or i1 %71, %69
  br i1 %or.cond, label %106, label %72

72:                                               ; preds = %66
  %73 = load ptr, ptr %63, align 8
  %74 = getelementptr i8, ptr %73, i64 8
  %.val = load ptr, ptr %74, align 8
  %75 = getelementptr inbounds nuw i32, ptr %.val, i64 %indvars.iv
  %76 = load i32, ptr %75, align 4
  %.not31 = icmp eq i32 %76, 0
  br i1 %.not31, label %106, label %77

77:                                               ; preds = %72
  %78 = load i32, ptr %3, align 4
  %79 = load i32, ptr %2, align 8
  %80 = icmp eq i32 %78, %79
  br i1 %80, label %81, label %.Vec_IntGrow.exit10_crit_edge.i44

.Vec_IntGrow.exit10_crit_edge.i44:                ; preds = %77
  %.pre.i46 = load ptr, ptr %5, align 8
  br label %Vec_IntPush.exit50

81:                                               ; preds = %77
  %82 = icmp slt i32 %78, 16
  br i1 %82, label %83, label %90

83:                                               ; preds = %81
  %84 = load ptr, ptr %5, align 8
  %.not9.i.i48 = icmp eq ptr %84, null
  br i1 %.not9.i.i48, label %87, label %85

85:                                               ; preds = %83
  %86 = tail call dereferenceable_or_null(64) ptr @realloc(ptr noundef nonnull %84, i64 noundef 64) #26
  br label %Vec_IntGrow.exit.i49

87:                                               ; preds = %83
  %88 = tail call noalias dereferenceable_or_null(64) ptr @malloc(i64 noundef 64) #27
  br label %Vec_IntGrow.exit.i49

Vec_IntGrow.exit.i49:                             ; preds = %87, %85
  %89 = phi ptr [ %86, %85 ], [ %88, %87 ]
  store ptr %89, ptr %5, align 8
  store i32 16, ptr %2, align 8
  br label %Vec_IntPush.exit50

90:                                               ; preds = %81
  %91 = shl nuw nsw i32 %78, 1
  %92 = load ptr, ptr %5, align 8
  %.not9.i9.i47 = icmp eq ptr %92, null
  %93 = zext nneg i32 %91 to i64
  %94 = shl nuw nsw i64 %93, 2
  br i1 %.not9.i9.i47, label %97, label %95

95:                                               ; preds = %90
  %96 = tail call ptr @realloc(ptr noundef nonnull %92, i64 noundef %94) #26
  br label %99

97:                                               ; preds = %90
  %98 = tail call noalias ptr @malloc(i64 noundef %94) #27
  br label %99

99:                                               ; preds = %97, %95
  %100 = phi ptr [ %96, %95 ], [ %98, %97 ]
  store ptr %100, ptr %5, align 8
  store i32 %91, ptr %2, align 8
  br label %Vec_IntPush.exit50

Vec_IntPush.exit50:                               ; preds = %.Vec_IntGrow.exit10_crit_edge.i44, %Vec_IntGrow.exit.i49, %99
  %101 = phi ptr [ %.pre.i46, %.Vec_IntGrow.exit10_crit_edge.i44 ], [ %100, %99 ], [ %89, %Vec_IntGrow.exit.i49 ]
  %102 = add nsw i32 %78, 1
  store i32 %102, ptr %3, align 4
  %103 = sext i32 %78 to i64
  %104 = getelementptr inbounds i32, ptr %101, i64 %103
  %105 = trunc nuw nsw i64 %indvars.iv to i32
  store i32 %105, ptr %104, align 4
  %.pre = load i32, ptr %60, align 8
  br label %106

106:                                              ; preds = %66, %Vec_IntPush.exit50, %72
  %107 = phi i32 [ %65, %66 ], [ %.pre, %Vec_IntPush.exit50 ], [ %65, %72 ]
  %indvars.iv.next = add nuw nsw i64 %indvars.iv, 1
  %108 = sext i32 %107 to i64
  %109 = icmp slt i64 %indvars.iv.next, %108
  br i1 %109, label %64, label %.critedge2, !llvm.loop !55

.critedge2:                                       ; preds = %64, %106, %.critedge
  ret ptr %2
}